target datalayout = "e-m:e-p270:32:32-p271:32:32-p272:64:64-i64:64-i128:128-f80:128-n8:16:32:64-S128"
target triple = "x86_64-pc-linux-gnu"

%struct.slurm_step_layout = type { ptr, i32, ptr, ptr, ptr, i32, ptr, i16, i16, ptr, i32, i32, ptr }

@.str.2 = private unnamed_addr constant [39 x i8] c"%s: protocol_version %hu not supported\00", align 1
@__func__.pack_slurm_step_layout = private unnamed_addr constant [23 x i8] c"pack_slurm_step_layout\00", align 1

; Function Attrs: nounwind uwtable
define dso_local void @pack_slurm_step_layout(ptr noundef %0, ptr noundef %1, i16 noundef zeroext %2) #0 {
  %4 = alloca ptr, align 8
  %5 = alloca ptr, align 8
  %6 = alloca i16, align 2
  %7 = alloca i32, align 4
  %8 = alloca i32, align 4
  %9 = alloca i32, align 4
  %10 = alloca i32, align 4
  %11 = alloca ptr, align 8
  %12 = alloca i32, align 4
  store ptr %0, ptr %4, align 8
  store ptr %1, ptr %5, align 8
  store i16 %2, ptr %6, align 2
  call void @llvm.lifetime.start.p0(i64 4, ptr %7) #7
  store i32 0, ptr %7, align 4
  %13 = load i16, ptr %6, align 2
  %14 = zext i16 %13 to i32
  %15 = icmp sge i32 %14, 10240
  br i1 %15, label %16, label %155

16:                                               ; preds = %3
  %17 = load ptr, ptr %4, align 8
  %18 = icmp ne ptr %17, null
  br i1 %18, label %19, label %20

19:                                               ; preds = %16
  store i32 1, ptr %7, align 4
  br label %20

20:                                               ; preds = %19, %16
  %21 = load i32, ptr %7, align 4
  %22 = trunc i32 %21 to i16
  %23 = load ptr, ptr %5, align 8
  call void @pack16(i16 noundef zeroext %22, ptr noundef %23)
  %24 = load i32, ptr %7, align 4
  %25 = icmp ne i32 %24, 0
  br i1 %25, label %27, label %26

26:                                               ; preds = %20
  store i32 1, ptr %8, align 4
  br label %160

27:                                               ; preds = %20
  br label %28

28:                                               ; preds = %27
  call void @llvm.lifetime.start.p0(i64 4, ptr %9) #7
  store i32 0, ptr %9, align 4
  %29 = load ptr, ptr %4, align 8
  %30 = getelementptr inbounds nuw %struct.slurm_step_layout, ptr %29, i32 0, i32 3
  %31 = load ptr, ptr %30, align 8
  %32 = icmp ne ptr %31, null
  br i1 %32, label %33, label %40

33:                                               ; preds = %28
  %34 = load ptr, ptr %4, align 8
  %35 = getelementptr inbounds nuw %struct.slurm_step_layout, ptr %34, i32 0, i32 3
  %36 = load ptr, ptr %35, align 8
  %37 = call i64 @strlen(ptr noundef %36) #8
  %38 = trunc i64 %37 to i32
  %39 = add i32 %38, 1
  store i32 %39, ptr %9, align 4
  br label %40

40:                                               ; preds = %33, %28
  %41 = load ptr, ptr %4, align 8
  %42 = getelementptr inbounds nuw %struct.slurm_step_layout, ptr %41, i32 0, i32 3
  %43 = load ptr, ptr %42, align 8
  %44 = load i32, ptr %9, align 4
  %45 = load ptr, ptr %5, align 8
  call void @packmem(ptr noundef %43, i32 noundef %44, ptr noundef %45)
  call void @llvm.lifetime.end.p0(i64 4, ptr %9) #7
  br label %46

46:                                               ; preds = %40
  br label %47

47:                                               ; preds = %46
  br label %48

48:                                               ; preds = %47
  call void @llvm.lifetime.start.p0(i64 4, ptr %10) #7
  store i32 0, ptr %10, align 4
  %49 = load ptr, ptr %4, align 8
  %50 = getelementptr inbounds nuw %struct.slurm_step_layout, ptr %49, i32 0, i32 6
  %51 = load ptr, ptr %50, align 8
  %52 = icmp ne ptr %51, null
  br i1 %52, label %53, label %60

53:                                               ; preds = %48
  %54 = load ptr, ptr %4, align 8
  %55 = getelementptr inbounds nuw %struct.slurm_step_layout, ptr %54, i32 0, i32 6
  %56 = load ptr, ptr %55, align 8
  %57 = call i64 @strlen(ptr noundef %56) #8
  %58 = trunc i64 %57 to i32
  %59 = add i32 %58, 1
  store i32 %59, ptr %10, align 4
  br label %60

60:                                               ; preds = %53, %48
  %61 = load ptr, ptr %4, align 8
  %62 = getelementptr inbounds nuw %struct.slurm_step_layout, ptr %61, i32 0, i32 6
  %63 = load ptr, ptr %62, align 8
  %64 = load i32, ptr %10, align 4
  %65 = load ptr, ptr %5, align 8
  call void @packmem(ptr noundef %63, i32 noundef %64, ptr noundef %65)
  call void @llvm.lifetime.end.p0(i64 4, ptr %10) #7
  br label %66

66:                                               ; preds = %60
  br label %67

67:                                               ; preds = %66
  %68 = load ptr, ptr %4, align 8
  %69 = getelementptr inbounds nuw %struct.slurm_step_layout, ptr %68, i32 0, i32 5
  %70 = load i32, ptr %69, align 8
  %71 = load ptr, ptr %5, align 8
  call void @pack32(i32 noundef %70, ptr noundef %71)
  %72 = load ptr, ptr %4, align 8
  %73 = getelementptr inbounds nuw %struct.slurm_step_layout, ptr %72, i32 0, i32 8
  %74 = load i16, ptr %73, align 2
  %75 = load ptr, ptr %5, align 8
  call void @pack16(i16 noundef zeroext %74, ptr noundef %75)
  %76 = load ptr, ptr %4, align 8
  %77 = getelementptr inbounds nuw %struct.slurm_step_layout, ptr %76, i32 0, i32 10
  %78 = load i32, ptr %77, align 8
  %79 = load ptr, ptr %5, align 8
  call void @pack32(i32 noundef %78, ptr noundef %79)
  %80 = load ptr, ptr %4, align 8
  %81 = getelementptr inbounds nuw %struct.slurm_step_layout, ptr %80, i32 0, i32 11
  %82 = load i32, ptr %81, align 4
  %83 = load ptr, ptr %5, align 8
  call void @pack32(i32 noundef %82, ptr noundef %83)
  store i32 0, ptr %7, align 4
  br label %84

84:                                               ; preds = %107, %67
  %85 = load i32, ptr %7, align 4
  %86 = load ptr, ptr %4, align 8
  %87 = getelementptr inbounds nuw %struct.slurm_step_layout, ptr %86, i32 0, i32 5
  %88 = load i32, ptr %87, align 8
  %89 = icmp ult i32 %85, %88
  br i1 %89, label %90, label %110

90:                                               ; preds = %84
  %91 = load ptr, ptr %4, align 8
  %92 = getelementptr inbounds nuw %struct.slurm_step_layout, ptr %91, i32 0, i32 12
  %93 = load ptr, ptr %92, align 8
  %94 = load i32, ptr %7, align 4
  %95 = zext i32 %94 to i64
  %96 = getelementptr inbounds nuw ptr, ptr %93, i64 %95
  %97 = load ptr, ptr %96, align 8
  %98 = load ptr, ptr %4, align 8
  %99 = getelementptr inbounds nuw %struct.slurm_step_layout, ptr %98, i32 0, i32 9
  %100 = load ptr, ptr %99, align 8
  %101 = load i32, ptr %7, align 4
  %102 = zext i32 %101 to i64
  %103 = getelementptr inbounds nuw i16, ptr %100, i64 %102
  %104 = load i16, ptr %103, align 2
  %105 = zext i16 %104 to i32
  %106 = load ptr, ptr %5, align 8
  call void @pack32_array(ptr noundef %97, i32 noundef %105, ptr noundef %106)
  br label %107

107:                                              ; preds = %90
  %108 = load i32, ptr %7, align 4
  %109 = add i32 %108, 1
  store i32 %109, ptr %7, align 4
  br label %84, !llvm.loop !8

110:                                              ; preds = %84
  %111 = load ptr, ptr %4, align 8
  %112 = getelementptr inbounds nuw %struct.slurm_step_layout, ptr %111, i32 0, i32 0
  %113 = load ptr, ptr %112, align 8
  %114 = load ptr, ptr %4, align 8
  %115 = getelementptr inbounds nuw %struct.slurm_step_layout, ptr %114, i32 0, i32 1
  %116 = load i32, ptr %115, align 8
  %117 = load ptr, ptr %5, align 8
  call void @pack16_array(ptr noundef %113, i32 noundef %116, ptr noundef %117)
  %118 = load ptr, ptr %4, align 8
  %119 = getelementptr inbounds nuw %struct.slurm_step_layout, ptr %118, i32 0, i32 2
  %120 = load ptr, ptr %119, align 8
  %121 = load ptr, ptr %4, align 8
  %122 = getelementptr inbounds nuw %struct.slurm_step_layout, ptr %121, i32 0, i32 1
  %123 = load i32, ptr %122, align 8
  %124 = load ptr, ptr %5, align 8
  call void @pack32_array(ptr noundef %120, i32 noundef %123, ptr noundef %124)
  %125 = load ptr, ptr %4, align 8
  %126 = getelementptr inbounds nuw %struct.slurm_step_layout, ptr %125, i32 0, i32 4
  %127 = load ptr, ptr %126, align 8
  %128 = icmp ne ptr %127, null
  br i1 %128, label %129, label %149

129:                                              ; preds = %110
  call void @llvm.lifetime.start.p0(i64 8, ptr %11) #7
  %130 = load ptr, ptr %4, align 8
  %131 = getelementptr inbounds nuw %struct.slurm_step_layout, ptr %130, i32 0, i32 4
  %132 = load ptr, ptr %131, align 8
  %133 = load i16, ptr %6, align 2
  %134 = call ptr @create_net_cred(ptr noundef %132, i16 noundef zeroext %133)
  store ptr %134, ptr %11, align 8
  br label %135

135:                                              ; preds = %129
  call void @llvm.lifetime.start.p0(i64 4, ptr %12) #7
  store i32 0, ptr %12, align 4
  %136 = load ptr, ptr %11, align 8
  %137 = icmp ne ptr %136, null
  br i1 %137, label %138, label %143

138:                                              ; preds = %135
  %139 = load ptr, ptr %11, align 8
  %140 = call i64 @strlen(ptr noundef %139) #8
  %141 = trunc i64 %140 to i32
  %142 = add i32 %141, 1
  store i32 %142, ptr %12, align 4
  br label %143

143:                                              ; preds = %138, %135
  %144 = load ptr, ptr %11, align 8
  %145 = load i32, ptr %12, align 4
  %146 = load ptr, ptr %5, align 8
  call void @packmem(ptr noundef %144, i32 noundef %145, ptr noundef %146)
  call void @llvm.lifetime.end.p0(i64 4, ptr %12) #7
  br label %147

147:                                              ; preds = %143
  br label %148

148:                                              ; preds = %147
  call void @slurm_xfree(ptr noundef %11)
  call void @llvm.lifetime.end.p0(i64 8, ptr %11) #7
  br label %154

149:                                              ; preds = %110
  br label %150

150:                                              ; preds = %149
  %151 = load ptr, ptr %5, align 8
  call void @packmem(ptr noundef null, i32 noundef 0, ptr noundef %151)
  br label %152

152:                                              ; preds = %150
  br label %153

153:                                              ; preds = %152
  br label %154

154:                                              ; preds = %153, %148
  br label %159

155:                                              ; preds = %3
  %156 = load i16, ptr %6, align 2
  %157 = zext i16 %156 to i32
  %158 = call i32 (ptr, ...) @error(ptr noundef @.str.2, ptr noundef @__func__.pack_slurm_step_layout, i32 noundef %157)
  br label %159

159:                                              ; preds = %155, %154
  store i32 0, ptr %8, align 4
  br label %160

160:                                              ; preds = %159, %26
  call void @llvm.lifetime.end.p0(i64 4, ptr %7) #7
  %161 = load i32, ptr %8, align 4
  switch i32 %161, label %163 [
    i32 0, label %162
    i32 1, label %162
  ]

162:                                              ; preds = %160, %160
  ret void

163:                                              ; preds = %160
  unreachable
}