; Function Attrs: nounwind uwtable
define dso_local void @pack_slurm_step_layout(ptr noundef readonly captures(address_is_null) %0, ptr noundef %1, i16 noundef zeroext %2) #0 {
  %4 = alloca ptr, align 8
  %5 = icmp ugt i16 %2, 10239
  br i1 %5, label %6, label %60

6:                                                ; preds = %3
  %.not = icmp ne ptr %0, null
  %spec.select = zext i1 %.not to i16
  tail call void @pack16(i16 noundef zeroext %spec.select, ptr noundef %1) #7
  br i1 %.not, label %7, label %63

7:                                                ; preds = %6
  %8 = getelementptr inbounds nuw i8, ptr %0, i64 24
  %9 = load ptr, ptr %8, align 8
  %.not51 = icmp eq ptr %9, null
  br i1 %.not51, label %14, label %10

10:                                               ; preds = %7
  %11 = tail call i64 @strlen(ptr noundef nonnull dereferenceable(1) %9) #8
  %12 = trunc i64 %11 to i32
  %13 = add i32 %12, 1
  br label %14

14:                                               ; preds = %10, %7
  %.044 = phi i32 [ %13, %10 ], [ 0, %7 ]
  tail call void @packmem(ptr noundef %9, i32 noundef %.044, ptr noundef %1) #7
  %15 = getelementptr inbounds nuw i8, ptr %0, i64 48
  %16 = load ptr, ptr %15, align 8
  %.not52 = icmp eq ptr %16, null
  br i1 %.not52, label %21, label %17

17:                                               ; preds = %14
  %18 = tail call i64 @strlen(ptr noundef nonnull dereferenceable(1) %16) #8
  %19 = trunc i64 %18 to i32
  %20 = add i32 %19, 1
  br label %21

21:                                               ; preds = %17, %14
  %.043 = phi i32 [ %20, %17 ], [ 0, %14 ]
  tail call void @packmem(ptr noundef %16, i32 noundef %.043, ptr noundef %1) #7
  %22 = getelementptr inbounds nuw i8, ptr %0, i64 40
  %23 = load i32, ptr %22, align 8
  tail call void @pack32(i32 noundef %23, ptr noundef %1) #7
  %24 = getelementptr inbounds nuw i8, ptr %0, i64 58
  %25 = load i16, ptr %24, align 2
  tail call void @pack16(i16 noundef zeroext %25, ptr noundef %1) #7
  %26 = getelementptr inbounds nuw i8, ptr %0, i64 72
  %27 = load i32, ptr %26, align 8
  tail call void @pack32(i32 noundef %27, ptr noundef %1) #7
  %28 = getelementptr inbounds nuw i8, ptr %0, i64 76
  %29 = load i32, ptr %28, align 4
  tail call void @pack32(i32 noundef %29, ptr noundef %1) #7
  %30 = load i32, ptr %22, align 8
  %.not56 = icmp eq i32 %30, 0
  br i1 %.not56, label %._crit_edge, label %.lr.ph

.lr.ph:                                           ; preds = %21
  %31 = getelementptr inbounds nuw i8, ptr %0, i64 80
  %32 = getelementptr inbounds nuw i8, ptr %0, i64 64
  br label %33

33:                                               ; preds = %.lr.ph, %33
  %indvars.iv = phi i64 [ 0, %.lr.ph ], [ %indvars.iv.next, %33 ]
  %34 = load ptr, ptr %31, align 8
  %35 = getelementptr inbounds nuw ptr, ptr %34, i64 %indvars.iv
  %36 = load ptr, ptr %35, align 8
  %37 = load ptr, ptr %32, align 8
  %38 = getelementptr inbounds nuw i16, ptr %37, i64 %indvars.iv
  %39 = load i16, ptr %38, align 2
  %40 = zext i16 %39 to i32
  tail call void @pack32_array(ptr noundef %36, i32 noundef %40, ptr noundef %1) #7
  %indvars.iv.next = add nuw nsw i64 %indvars.iv, 1
  %41 = load i32, ptr %22, align 8
  %42 = zext i32 %41 to i64
  %43 = icmp samesign ult i64 %indvars.iv.next, %42
  br i1 %43, label %33, label %._crit_edge, !llvm.loop !8

._crit_edge:                                      ; preds = %33, %21
  %44 = load ptr, ptr %0, align 8
  %45 = getelementptr inbounds nuw i8, ptr %0, i64 8
  %46 = load i32, ptr %45, align 8
  tail call void @pack16_array(ptr noundef %44, i32 noundef %46, ptr noundef %1) #7
  %47 = getelementptr inbounds nuw i8, ptr %0, i64 16
  %48 = load ptr, ptr %47, align 8
  %49 = load i32, ptr %45, align 8
  tail call void @pack32_array(ptr noundef %48, i32 noundef %49, ptr noundef %1) #7
  %50 = getelementptr inbounds nuw i8, ptr %0, i64 32
  %51 = load ptr, ptr %50, align 8
  %.not53 = icmp eq ptr %51, null
  br i1 %.not53, label %59, label %52

52:                                               ; preds = %._crit_edge
  call void @llvm.lifetime.start.p0(i64 8, ptr nonnull %4) #7
  %53 = tail call ptr @create_net_cred(ptr noundef nonnull %51, i16 noundef zeroext %2) #7
  store ptr %53, ptr %4, align 8
  %.not54 = icmp eq ptr %53, null
  br i1 %.not54, label %58, label %54

54:                                               ; preds = %52
  %55 = tail call i64 @strlen(ptr noundef nonnull dereferenceable(1) %53) #8
  %56 = trunc i64 %55 to i32
  %57 = add i32 %56, 1
  br label %58

58:                                               ; preds = %54, %52
  %.0 = phi i32 [ %57, %54 ], [ 0, %52 ]
  tail call void @packmem(ptr noundef %53, i32 noundef %.0, ptr noundef %1) #7
  call void @slurm_xfree(ptr noundef nonnull %4) #7
  call void @llvm.lifetime.end.p0(i64 8, ptr nonnull %4) #7
  br label %63

59:                                               ; preds = %._crit_edge
  tail call void @packmem(ptr noundef null, i32 noundef 0, ptr noundef %1) #7
  br label %63

60:                                               ; preds = %3
  %61 = zext nneg i16 %2 to i32
  %62 = tail call i32 (ptr, ...) @error(ptr noundef nonnull @.str.2, ptr noundef nonnull @__func__.pack_slurm_step_layout, i32 noundef %61) #7
  br label %63

63:                                               ; preds = %60, %59, %58, %6
  ret void
}